BL51 BANKED LINKER/LOCATER V6.22.4.0                                                    05/14/2024  01:05:54  PAGE 1


BL51 BANKED LINKER/LOCATER V6.22.4.0, INVOKED BY:
D:\APP-KEIL5\C51\BIN\BL51.EXE .\Objects\main.obj TO .\Objects\project PRINT (.\Listings\project.m51) RAMSIZE (256)


MEMORY MODEL: SMALL


INPUT MODULES INCLUDED:
  .\Objects\main.obj (MAIN)
  D:\APP-KEIL5\C51\LIB\C51S.LIB (?C_STARTUP)
  D:\APP-KEIL5\C51\LIB\C51S.LIB (?C?CLDPTR)
  D:\APP-KEIL5\C51\LIB\C51S.LIB (?C?SLDIV)
  D:\APP-KEIL5\C51\LIB\C51S.LIB (?C?SLCMP)
  D:\APP-KEIL5\C51\LIB\C51S.LIB (?C_INIT)
  D:\APP-KEIL5\C51\LIB\C51S.LIB (?C?ULDIV)


LINK MAP OF MODULE:  .\Objects\project (MAIN)


            TYPE    BASE      LENGTH    RELOCATION   SEGMENT NAME
            -----------------------------------------------------

            * * * * * * *   D A T A   M E M O R Y   * * * * * * *
            REG     0000H     0008H     ABSOLUTE     "REG BANK 0"
            DATA    0008H     0015H     UNIT         ?DT?MAIN
            DATA    001DH     0007H     UNIT         _DATA_GROUP_
            IDATA   0024H     0001H     UNIT         ?STACK

            * * * * * * *   C O D E   M E M O R Y   * * * * * * *
            CODE    0000H     0003H     ABSOLUTE     
                    0003H     0008H                  *** GAP ***
            CODE    000BH     0003H     ABSOLUTE     
            CODE    000EH     000AH     UNIT         ?C_INITSEG
                    0018H     0003H                  *** GAP ***
            CODE    001BH     0003H     ABSOLUTE     
            CODE    001EH     01C2H     UNIT         ?PR?TIME1?MAIN
            CODE    01E0H     0177H     UNIT         ?PR?MAIN?MAIN
            CODE    0357H     00FDH     UNIT         ?C?LIB_CODE
            CODE    0454H     008CH     UNIT         ?C_C51STARTUP
            CODE    04E0H     0044H     UNIT         ?CO?MAIN
            CODE    0524H     0044H     UNIT         ?C?LDIV
            CODE    0568H     0041H     UNIT         ?PR?_LCD_1602_WORD?MAIN
            CODE    05A9H     0030H     UNIT         ?PR?TIME0?MAIN
            CODE    05D9H     002AH     UNIT         ?PR?INITLCD?MAIN
            CODE    0603H     0016H     UNIT         ?PR?TIM_INIT?MAIN
            CODE    0619H     0016H     UNIT         ?PR?_LCD_WRITEDATA?MAIN
            CODE    062FH     0016H     UNIT         ?PR?_LCD_WRITECOM?MAIN
            CODE    0645H     0009H     UNIT         ?PR?DELAY5MS?MAIN



OVERLAY MAP OF MODULE:   .\Objects\project (MAIN)


SEGMENT                           DATA_GROUP 
  +--> CALLED SEGMENT           START    LENGTH
-----------------------------------------------
BL51 BANKED LINKER/LOCATER V6.22.4.0                                                  05/14/2024  01:05:54  PAGE 2


?C_C51STARTUP                   -----    -----
  +--> ?PR?MAIN?MAIN
  +--> ?C_INITSEG

?PR?MAIN?MAIN                   -----    -----
  +--> ?PR?INITLCD?MAIN
  +--> ?PR?TIM_INIT?MAIN
  +--> ?PR?_LCD_1602_WORD?MAIN
  +--> ?CO?MAIN

?PR?INITLCD?MAIN                -----    -----
  +--> ?PR?DELAY5MS?MAIN
  +--> ?PR?_LCD_WRITECOM?MAIN

?PR?_LCD_WRITECOM?MAIN          0023H    0001H
  +--> ?PR?DELAY5MS?MAIN

?PR?_LCD_1602_WORD?MAIN         001DH    0006H
  +--> ?CO?MAIN
  +--> ?PR?_LCD_WRITECOM?MAIN
  +--> ?PR?_LCD_WRITEDATA?MAIN

?PR?_LCD_WRITEDATA?MAIN         0023H    0001H
  +--> ?PR?DELAY5MS?MAIN



SYMBOL TABLE OF MODULE:  .\Objects\project (MAIN)

  VALUE           TYPE          NAME
  ----------------------------------

  -------         MODULE        MAIN
  C:0000H         SYMBOL        _ICE_DUMMY_
  D:0080H         PUBLIC        P0
  D:0090H         PUBLIC        P1
  D:00A0H         PUBLIC        P2
  D:00B0H         PUBLIC        P3
  B:00A8H.7       PUBLIC        EA
  D:000AH         PUBLIC        Xintiao_H
  D:000BH         PUBLIC        Key_Value
  D:000CH         PUBLIC        Xintiao_Change
  D:000DH         PUBLIC        Xintiao_L
  D:00A8H         PUBLIC        IE
  D:00B8H         PUBLIC        IP
  D:000EH         PUBLIC        View_Con
  C:0603H         PUBLIC        Tim_Init
  C:01E0H         PUBLIC        main
  C:0645H         PUBLIC        delay5ms
  C:05D9H         PUBLIC        InitLcd
  D:0098H         PUBLIC        SCON
  D:0089H         PUBLIC        TMOD
  D:0088H         PUBLIC        TCON
  C:0619H         PUBLIC        _LCD_WriteData
  C:05A9H         PUBLIC        Time0
  C:001EH         PUBLIC        Time1
  D:000FH         PUBLIC        View_H
BL51 BANKED LINKER/LOCATER V6.22.4.0                                                  05/14/2024  01:05:54  PAGE 3


  D:0012H         PUBLIC        View_Change
  D:0013H         PUBLIC        Xintiao_Jishu
  D:0015H         PUBLIC        stop
  D:0016H         PUBLIC        View_L
  B:00A8H.1       PUBLIC        ET0
  B:00A8H.3       PUBLIC        ET1
  D:008CH         PUBLIC        TH0
  D:008DH         PUBLIC        TH1
  D:008AH         PUBLIC        TL0
  D:008BH         PUBLIC        TL1
  D:0019H         PUBLIC        Key_Change
  B:0088H.4       PUBLIC        TR0
  B:0088H.6       PUBLIC        TR1
  B:00A0H.5       PUBLIC        LCD_RS
  B:00A0H.6       PUBLIC        LCD_RW
  B:0090H.0       PUBLIC        Xintiao
  C:062FH         PUBLIC        _LCD_WriteCom
  D:00C8H         PUBLIC        T2CON
  B:00A0H.4       PUBLIC        speaker
  B:00A0H.7       PUBLIC        LCD_E
  D:001AH         PUBLIC        View_Data
  D:00D0H         PUBLIC        PSW
  C:0572H         PUBLIC        _lcd_1602_word
  -------         PROC          MAIN
  C:01E0H         LINE#         39
  C:01E0H         LINE#         40
  C:01E0H         LINE#         41
  C:01E3H         LINE#         42
  C:01E6H         LINE#         43
  C:01E9H         LINE#         44
  C:01EBH         LINE#         45
  C:01EDH         LINE#         46
  C:01EDH         LINE#         47
  C:01EDH         LINE#         48
  C:01F1H         LINE#         49
  C:01F1H         LINE#         50
  C:01F4H         LINE#         51
  C:01F7H         LINE#         52
  C:0204H         LINE#         53
  C:0204H         LINE#         54
  C:0204H         LINE#         55
  C:0204H         LINE#         56
  C:0206H         LINE#         57
  C:020CH         LINE#         58
  C:020EH         LINE#         59
  C:0210H         LINE#         60
  C:0210H         LINE#         61
  C:0210H         LINE#         62
  C:0210H         LINE#         63
  C:0215H         LINE#         64
  C:0215H         LINE#         65
  C:021CH         LINE#         66
  C:021EH         LINE#         67
  C:021EH         LINE#         68
  C:0224H         LINE#         69
  C:0224H         LINE#         70
  C:022EH         LINE#         71
BL51 BANKED LINKER/LOCATER V6.22.4.0                                                  05/14/2024  01:05:54  PAGE 4


  C:0230H         LINE#         72
  C:0230H         LINE#         73
  C:0232H         LINE#         74
  C:0232H         LINE#         75
  C:0232H         LINE#         76
  C:0232H         LINE#         77
  C:0237H         LINE#         78
  C:0237H         LINE#         79
  C:024CH         LINE#         80
  C:024EH         LINE#         81
  C:024EH         LINE#         82
  C:0253H         LINE#         83
  C:0253H         LINE#         84
  C:025AH         LINE#         85
  C:025CH         LINE#         86
  C:025CH         LINE#         87
  C:025CH         LINE#         88
  C:025CH         LINE#         89
  C:025CH         LINE#         90
  C:025CH         LINE#         91
  C:0260H         LINE#         92
  C:0260H         LINE#         93
  C:0263H         LINE#         94
  C:0267H         LINE#         95
  C:0267H         LINE#         96
  C:026CH         LINE#         97
  C:026FH         LINE#         98
  C:0271H         LINE#         100
  C:0271H         LINE#         101
  C:0274H         LINE#         102
  C:0277H         LINE#         103
  C:027AH         LINE#         104
  C:027AH         LINE#         106
  C:0289H         LINE#         107
  C:0289H         LINE#         108
  C:0289H         LINE#         109
  C:0289H         LINE#         110
  C:028CH         LINE#         111
  C:0299H         LINE#         112
  C:029FH         LINE#         113
  C:02A1H         LINE#         114
  C:02A1H         LINE#         115
  C:02A1H         LINE#         116
  C:02A1H         LINE#         117
  C:02A4H         LINE#         118
  C:02B1H         LINE#         120
  C:02BBH         LINE#         121
  C:02CBH         LINE#         122
  C:02D7H         LINE#         124
  C:02DCH         LINE#         125
  C:02DFH         LINE#         127
  C:02ECH         LINE#         128
  C:02F9H         LINE#         129
  C:02FCH         LINE#         130
  C:02FCH         LINE#         131
  C:02FCH         LINE#         132
  C:02FCH         LINE#         133
BL51 BANKED LINKER/LOCATER V6.22.4.0                                                  05/14/2024  01:05:54  PAGE 5


  C:02FFH         LINE#         134
  C:030CH         LINE#         136
  C:0316H         LINE#         137
  C:0326H         LINE#         138
  C:0332H         LINE#         140
  C:0337H         LINE#         141
  C:033AH         LINE#         143
  C:0347H         LINE#         144
  C:0354H         LINE#         145
  -------         ENDPROC       MAIN
  -------         PROC          TIME1
  -------         DO            
  D:0008H         SYMBOL        Key_Con
  D:0009H         SYMBOL        Xintiao_Con
  -------         ENDDO         
  C:001EH         LINE#         152
  C:003BH         LINE#         155
  C:003EH         LINE#         156
  C:0041H         LINE#         157
  C:004DH         LINE#         158
  C:004DH         LINE#         159
  C:004DH         LINE#         160
  C:004DH         LINE#         161
  C:0055H         LINE#         162
  C:0055H         LINE#         163
  C:0057H         LINE#         164
  C:0057H         LINE#         165
  C:0059H         LINE#         166
  C:0059H         LINE#         167
  C:0059H         LINE#         168
  C:0059H         LINE#         169
  C:0061H         LINE#         170
  C:0061H         LINE#         171
  C:0063H         LINE#         172
  C:0072H         LINE#         173
  C:0072H         LINE#         174
  C:0077H         LINE#         175
  C:007CH         LINE#         176
  C:0081H         LINE#         177
  C:0081H         LINE#         178
  C:0081H         LINE#         184
  C:0081H         LINE#         185
  C:0081H         LINE#         186
  C:0081H         LINE#         187
  C:0089H         LINE#         188
  C:0089H         LINE#         189
  C:008CH         LINE#         190
  C:008FH         LINE#         191
  C:008FH         LINE#         192
  C:008FH         LINE#         193
  C:008FH         LINE#         194
  C:008FH         LINE#         196
  C:00A4H         LINE#         197
  C:00A4H         LINE#         198
  C:00A4H         LINE#         199
  C:00A4H         LINE#         200
  C:00AAH         LINE#         201
BL51 BANKED LINKER/LOCATER V6.22.4.0                                                  05/14/2024  01:05:54  PAGE 6


  C:00AAH         LINE#         202
  C:00ACH         LINE#         203
  C:00ACH         LINE#         204
  C:00AFH         LINE#         205
  C:00AFH         LINE#         206
  C:00AFH         LINE#         207
  C:00AFH         LINE#         208
  C:00B2H         LINE#         209
  C:00B2H         LINE#         210
  C:00B4H         LINE#         211
  C:00B7H         LINE#         217
  C:00B7H         LINE#         218
  C:00B7H         LINE#         219
  C:00B7H         LINE#         220
  C:00BAH         LINE#         221
  C:00BAH         LINE#         222
  C:00BCH         LINE#         223
  C:00BFH         LINE#         225
  C:00BFH         LINE#         226
  C:00BFH         LINE#         227
  C:00BFH         LINE#         228
  C:00C2H         LINE#         229
  C:00C2H         LINE#         230
  C:00C2H         LINE#         231
  C:00C2H         LINE#         232
  C:00C5H         LINE#         233
  C:00C5H         LINE#         234
  C:00C7H         LINE#         235
  C:00CAH         LINE#         237
  C:00CAH         LINE#         238
  C:00CAH         LINE#         239
  C:00CAH         LINE#         240
  C:00CDH         LINE#         241
  C:00CDH         LINE#         242
  C:00CDH         LINE#         243
  C:00CDH         LINE#         244
  C:00D3H         LINE#         245
  C:00D3H         LINE#         246
  C:00DCH         LINE#         247
  C:00DCH         LINE#         248
  C:00FDH         LINE#         249
  C:0130H         LINE#         250
  C:0152H         LINE#         252
  C:01A2H         LINE#         253
  C:01A6H         LINE#         255
  C:01A8H         LINE#         257
  C:01ABH         LINE#         258
  C:01B1H         LINE#         259
  C:01B4H         LINE#         260
  C:01B7H         LINE#         261
  C:01B9H         LINE#         263
  C:01B9H         LINE#         264
  C:01BFH         LINE#         265
  C:01C2H         LINE#         266
  C:01C2H         LINE#         267
  C:01C5H         LINE#         268
  C:01C5H         LINE#         269
BL51 BANKED LINKER/LOCATER V6.22.4.0                                                  05/14/2024  01:05:54  PAGE 7


  C:01C5H         LINE#         270
  C:01C5H         LINE#         271
  C:01C5H         LINE#         272
  -------         ENDPROC       TIME1
  -------         PROC          TIME0
  C:05A9H         LINE#         274
  C:05ADH         LINE#         276
  C:05B0H         LINE#         277
  C:05B3H         LINE#         278
  C:05BBH         LINE#         279
  C:05C3H         LINE#         280
  C:05C3H         LINE#         281
  C:05C9H         LINE#         282
  C:05CCH         LINE#         283
  C:05CFH         LINE#         284
  C:05D2H         LINE#         285
  C:05D4H         LINE#         286
  C:05D4H         LINE#         287
  -------         ENDPROC       TIME0
  -------         PROC          TIM_INIT
  C:0603H         LINE#         289
  C:0603H         LINE#         290
  C:0603H         LINE#         291
  C:0605H         LINE#         292
  C:0607H         LINE#         293
  C:0609H         LINE#         294
  C:060CH         LINE#         295
  C:060FH         LINE#         296
  C:0612H         LINE#         298
  C:0615H         LINE#         299
  C:0618H         LINE#         300
  -------         ENDPROC       TIM_INIT
  C:0568H         SYMBOL        L?0085
  -------         PROC          L?0084
  -------         ENDPROC       L?0084
  C:0568H         SYMBOL        L?0085
  -------         PROC          _LCD_1602_WORD
  D:0007H         SYMBOL        Adress_Com
  D:001DH         SYMBOL        Num_Adat
  D:001EH         SYMBOL        Adress_Data
  -------         DO            
  D:0021H         SYMBOL        a
  D:0022H         SYMBOL        Data_Word
  -------         ENDDO         
  C:0572H         LINE#         303
  C:057AH         LINE#         304
  C:057AH         LINE#         305
  C:057DH         LINE#         307
  C:0580H         LINE#         308
  C:058AH         LINE#         309
  C:058AH         LINE#         310
  C:0595H         LINE#         311
  C:0599H         LINE#         312
  C:05A4H         LINE#         313
  C:05A8H         LINE#         314
  -------         ENDPROC       _LCD_1602_WORD
  -------         PROC          _LCD_WRITEDATA
BL51 BANKED LINKER/LOCATER V6.22.4.0                                                  05/14/2024  01:05:54  PAGE 8


  D:0023H         SYMBOL        LCD_1602_DATA
  C:0619H         LINE#         317
  C:061BH         LINE#         318
  C:061BH         LINE#         319
  C:061EH         LINE#         320
  C:0620H         LINE#         321
  C:0622H         LINE#         322
  C:0624H         LINE#         323
  C:0625H         LINE#         324
  C:0627H         LINE#         325
  C:062AH         LINE#         326
  C:062CH         LINE#         327
  C:062EH         LINE#         328
  -------         ENDPROC       _LCD_WRITEDATA
  -------         PROC          _LCD_WRITECOM
  D:0023H         SYMBOL        LCD_1602_COM
  C:062FH         LINE#         331
  C:0631H         LINE#         332
  C:0631H         LINE#         333
  C:0634H         LINE#         334
  C:0636H         LINE#         335
  C:0638H         LINE#         336
  C:063AH         LINE#         337
  C:063BH         LINE#         338
  C:063DH         LINE#         339
  C:0640H         LINE#         340
  C:0642H         LINE#         341
  C:0644H         LINE#         342
  -------         ENDPROC       _LCD_WRITECOM
  -------         PROC          INITLCD
  C:05D9H         LINE#         345
  C:05D9H         LINE#         346
  C:05D9H         LINE#         347
  C:05DCH         LINE#         348
  C:05DFH         LINE#         349
  C:05E4H         LINE#         350
  C:05E9H         LINE#         351
  C:05EEH         LINE#         352
  C:05F3H         LINE#         353
  C:05F8H         LINE#         354
  C:05FDH         LINE#         355
  C:0600H         LINE#         356
  -------         ENDPROC       INITLCD
  -------         PROC          DELAY5MS
  -------         DO            
  D:0006H         SYMBOL        a
  D:0007H         SYMBOL        b
  -------         ENDDO         
  C:0645H         LINE#         359
  C:0645H         LINE#         360
  C:0645H         LINE#         362
  C:0647H         LINE#         363
  C:064DH         LINE#         364
  -------         ENDPROC       DELAY5MS
  -------         ENDMOD        MAIN

  -------         MODULE        ?C?CLDPTR
BL51 BANKED LINKER/LOCATER V6.22.4.0                                                  05/14/2024  01:05:54  PAGE 9


  C:0357H         PUBLIC        ?C?CLDPTR
  -------         ENDMOD        ?C?CLDPTR

  -------         MODULE        ?C?SLDIV
  C:0524H         PUBLIC        ?C?SLDIV
  -------         ENDMOD        ?C?SLDIV

  -------         MODULE        ?C?SLCMP
  C:0370H         PUBLIC        ?C?SLCMP
  -------         ENDMOD        ?C?SLCMP

  -------         MODULE        ?C?ULDIV
  C:03C2H         PUBLIC        ?C?ULDIV
  -------         ENDMOD        ?C?ULDIV

Program Size: data=37.0 xdata=0 code=1603
LINK/LOCATE RUN COMPLETE.  0 WARNING(S),  0 ERROR(S)
